#include <math.h>
#include <stdio.h>
#include <stdlib.h>
#include <string.h>

int main()
{
	int n, i;
    int sum=0 ;
	scanf("%d", &n);
	for(i=0; i<=n; i++)
	{
		if (i%7==0||i==17||i==27||i==37||i==47||i==57||i==67||i==87||i==97||i==71||i==72||i==73||i==74||i==75||i==76||i==78||i==79)
			sum=sum;
		else sum=sum+i*i;
	}
	printf("%d", sum);
	return 0;
}